; Function Attrs: mustprogress uwtable
define hidden noundef zeroext i1 @_ZN4cvc58internal6theory7strings11ArithEntail11checkSimpleENS0_12NodeTemplateILb1EEE(ptr noundef nonnull %0) local_unnamed_addr #3 align 2 personality ptr @__gxx_personality_v0 {
  %2 = alloca %"class.cvc5::internal::NodeTemplate", align 8
  %3 = tail call noundef zeroext i1 @_ZNK4cvc58internal12NodeTemplateILb1EE7isConstEv(ptr noundef nonnull align 8 dereferenceable(8) %0)
  %4 = load ptr, ptr %0, align 8, !tbaa !25
  br i1 %3, label %5, label %9

5:                                                ; preds = %1
  %6 = tail call noundef nonnull align 8 dereferenceable(32) ptr @_ZNK4cvc58internal4expr9NodeValue8getConstINS0_8RationalEEERKT_v(ptr noundef nonnull align 8 dereferenceable(24) %4)
  %7 = getelementptr inbounds nuw i8, ptr %6, i64 4
  %8 = load i32, ptr %7, align 4, !tbaa !215
  %.inv.i = icmp sgt i32 %8, -1
  br label %.loopexit

9:                                                ; preds = %1
  %10 = getelementptr inbounds nuw i8, ptr %4, i64 8
  %11 = load i64, ptr %10, align 8
  %12 = trunc i64 %11 to i32
  %13 = and i32 %12, 1023
  switch i32 %13, label %.fold.split [
    i32 317, label %.loopexit
    i32 39, label %14
    i32 40, label %14
  ]

14:                                               ; preds = %9, %9
  %15 = tail call noundef i32 @_ZN4cvc58internal4kind10metaKindOfENS1_6Kind_tE(i32 noundef %13)
  %16 = icmp eq i32 %15, 2
  %17 = load i64, ptr %10, align 8
  %18 = lshr i64 %17, 32
  %19 = and i64 %18, 67108863
  %20 = sext i1 %16 to i64
  %21 = add nsw i64 %19, %20
  %22 = and i64 %21, 4294967295
  %23 = icmp eq i64 %22, 0
  br i1 %23, label %.loopexit, label %.lr.ph

24:                                               ; preds = %_ZN4cvc58internal12NodeTemplateILb1EED2Ev.exit
  %25 = add nuw i32 %.068, 1
  %26 = zext i32 %25 to i64
  %27 = load ptr, ptr %0, align 8, !tbaa !25
  %28 = getelementptr inbounds nuw i8, ptr %27, i64 8
  %29 = load i64, ptr %28, align 8
  %30 = trunc i64 %29 to i32
  %31 = and i32 %30, 1023
  %32 = icmp eq i32 %31, 1023
  %33 = select i1 %32, i32 -1, i32 %31
  %34 = call noundef i32 @_ZN4cvc58internal4kind10metaKindOfENS1_6Kind_tE(i32 noundef %33)
  %35 = icmp eq i32 %34, 2
  %36 = load i64, ptr %28, align 8
  %37 = lshr i64 %36, 32
  %38 = and i64 %37, 67108863
  %39 = sext i1 %35 to i64
  %40 = add nsw i64 %38, %39
  %41 = and i64 %40, 4294967295
  %.not = icmp samesign ugt i64 %41, %26
  br i1 %.not, label %.lr.ph, label %.loopexit, !llvm.loop !222

.lr.ph:                                           ; preds = %14, %24
  %.068 = phi i32 [ %25, %24 ], [ 0, %14 ]
  call void @llvm.experimental.noalias.scope.decl(metadata !223)
  %42 = load ptr, ptr %0, align 8, !tbaa !25, !noalias !223
  %43 = getelementptr inbounds nuw i8, ptr %42, i64 8
  %44 = load i64, ptr %43, align 8, !noalias !223
  %45 = trunc i64 %44 to i32
  %46 = and i32 %45, 1023
  %47 = icmp eq i32 %46, 1023
  %48 = select i1 %47, i32 -1, i32 %46
  %49 = call noundef i32 @_ZN4cvc58internal4kind10metaKindOfENS1_6Kind_tE(i32 noundef %48), !noalias !223
  %50 = icmp eq i32 %49, 2
  %51 = zext i1 %50 to i32
  %spec.select.i.i = add nsw i32 %.068, %51
  %52 = getelementptr inbounds nuw i8, ptr %42, i64 24
  %53 = sext i32 %spec.select.i.i to i64
  %54 = getelementptr inbounds [0 x ptr], ptr %52, i64 0, i64 %53
  %55 = load ptr, ptr %54, align 8, !tbaa !24, !noalias !223
  store ptr %55, ptr %2, align 8, !tbaa !25, !alias.scope !223
  %56 = load i64, ptr %55, align 8, !noalias !223
  %57 = lshr i64 %56, 40
  %58 = trunc nuw nsw i64 %57 to i32
  %59 = and i32 %58, 1048575
  %60 = icmp samesign ult i32 %59, 1048574
  br i1 %60, label %61, label %66, !prof !32

61:                                               ; preds = %.lr.ph
  %62 = add i64 %56, 1099511627776
  %63 = and i64 %62, 1152920405095219200
  %64 = and i64 %56, -1152920405095219201
  %65 = or disjoint i64 %63, %64
  store i64 %65, ptr %55, align 8, !noalias !223
  br label %_ZNK4cvc58internal12NodeTemplateILb1EEixEi.exit

66:                                               ; preds = %.lr.ph
  %67 = icmp eq i32 %59, 1048574
  br i1 %67, label %68, label %_ZNK4cvc58internal12NodeTemplateILb1EEixEi.exit, !prof !31

68:                                               ; preds = %66
  %69 = or i64 %56, 1152920405095219200
  store i64 %69, ptr %55, align 8, !noalias !223
  call void @_ZN4cvc58internal4expr9NodeValue20markRefCountMaxedOutEv(ptr noundef nonnull align 8 dereferenceable(24) %55), !noalias !223
  br label %_ZNK4cvc58internal12NodeTemplateILb1EEixEi.exit

_ZNK4cvc58internal12NodeTemplateILb1EEixEi.exit:  ; preds = %61, %66, %68
  %70 = invoke noundef zeroext i1 @_ZN4cvc58internal6theory7strings11ArithEntail11checkSimpleENS0_12NodeTemplateILb1EEE(ptr noundef nonnull %2)
          to label %71 unwind label %85

71:                                               ; preds = %_ZNK4cvc58internal12NodeTemplateILb1EEixEi.exit
  %72 = load ptr, ptr %2, align 8, !tbaa !25
  %73 = load i64, ptr %72, align 8
  %74 = and i64 %73, 1152920405095219200
  %.not.i.i = icmp eq i64 %74, 1152920405095219200
  br i1 %.not.i.i, label %_ZN4cvc58internal12NodeTemplateILb1EED2Ev.exit, label %75, !prof !31

75:                                               ; preds = %71
  %76 = add i64 %73, 1152920405095219200
  %77 = and i64 %76, 1152920405095219200
  %78 = and i64 %73, -1152920405095219201
  %79 = or disjoint i64 %77, %78
  store i64 %79, ptr %72, align 8
  %80 = icmp eq i64 %77, 0
  br i1 %80, label %81, label %_ZN4cvc58internal12NodeTemplateILb1EED2Ev.exit, !prof !31

81:                                               ; preds = %75
  invoke void @_ZN4cvc58internal4expr9NodeValue15markForDeletionEv(ptr noundef nonnull align 8 dereferenceable(24) %72)
          to label %_ZN4cvc58internal12NodeTemplateILb1EED2Ev.exit unwind label %82

82:                                               ; preds = %81
  %83 = landingpad { ptr, i32 }
          catch ptr null
  %84 = extractvalue { ptr, i32 } %83, 0
  call void @__clang_call_terminate(ptr %84) #24
  unreachable

_ZN4cvc58internal12NodeTemplateILb1EED2Ev.exit:   ; preds = %71, %75, %81
  br i1 %70, label %24, label %.loopexit

85:                                               ; preds = %_ZNK4cvc58internal12NodeTemplateILb1EEixEi.exit
  %86 = landingpad { ptr, i32 }
          cleanup
  call void @_ZN4cvc58internal12NodeTemplateILb1EED2Ev(ptr noundef nonnull align 8 dereferenceable(8) %2) #22
  resume { ptr, i32 } %86

.fold.split:                                      ; preds = %9
  br label %.loopexit

.loopexit:                                        ; preds = %_ZN4cvc58internal12NodeTemplateILb1EED2Ev.exit, %24, %14, %9, %.fold.split, %5
  %.0 = phi i1 [ %.inv.i, %5 ], [ true, %9 ], [ false, %.fold.split ], [ true, %14 ], [ %70, %24 ], [ %70, %_ZN4cvc58internal12NodeTemplateILb1EED2Ev.exit ]
  ret i1 %.0
}